target datalayout = "e-m:e-p270:32:32-p271:32:32-p272:64:64-i64:64-i128:128-f80:128-n8:16:32:64-S128"
target triple = "x86_64-pc-linux-gnu"

%"struct.vcpkg::DiagnosticContext" = type { ptr }
%"class.std::vector.6" = type { %"struct.std::_Vector_base.7" }
%"struct.std::_Vector_base.7" = type { %"struct.std::_Vector_base<vcpkg::DiagnosticLine, std::allocator<vcpkg::DiagnosticLine>>::_Vector_impl" }
%"struct.std::_Vector_base<vcpkg::DiagnosticLine, std::allocator<vcpkg::DiagnosticLine>>::_Vector_impl" = type { %"struct.std::_Vector_base<vcpkg::DiagnosticLine, std::allocator<vcpkg::DiagnosticLine>>::_Vector_impl_data" }
%"struct.std::_Vector_base<vcpkg::DiagnosticLine, std::allocator<vcpkg::DiagnosticLine>>::_Vector_impl_data" = type { ptr, ptr, ptr }
%"struct.vcpkg::AttemptDiagnosticContext" = type { %"struct.vcpkg::DiagnosticContext", ptr, %"class.std::vector.6" }

; Function Attrs: mustprogress uwtable
define dso_local void @_ZN5vcpkg24AttemptDiagnosticContext8statuslnERKNS_15LocalizedStringE(ptr noundef nonnull align 8 dereferenceable(40) %0, ptr noundef nonnull align 8 dereferenceable(32) %1) unnamed_addr #0 align 2 {
  %3 = alloca ptr, align 8
  %4 = alloca ptr, align 8
  store ptr %0, ptr %3, align 8, !tbaa !107
  store ptr %1, ptr %4, align 8, !tbaa !64
  %5 = load ptr, ptr %3, align 8
  %6 = getelementptr inbounds nuw %"struct.vcpkg::AttemptDiagnosticContext", ptr %5, i32 0, i32 1
  %7 = load ptr, ptr %6, align 8, !tbaa !109
  %8 = load ptr, ptr %4, align 8, !tbaa !64
  %9 = load ptr, ptr %7, align 8, !tbaa !11
  %10 = getelementptr inbounds ptr, ptr %9, i64 2
  %11 = load ptr, ptr %10, align 8
  call void %11(ptr noundef nonnull align 8 dereferenceable(8) %7, ptr noundef nonnull align 8 dereferenceable(32) %8)
  ret void
}